Certificate:
    Data:
        Version: 3 (0x2)
        Serial Number: 4096 (0x1000)
    Signature Algorithm: sha256WithRSAEncryption
        Issuer: C=US, ST=California, L=Pomona, O=Cal Poly Pomona, OU=CS Masters, CN=Kevin/emailAddress=foolycooly288622@yahoo.com
        Validity
            Not Before: Oct  1 22:29:31 2022 GMT
            Not After : Oct  1 22:29:31 2023 GMT
        Subject: C=US, ST=California, O=Cal Poly Pomona, OU=CS Masters, CN=Mason/emailAddress=Mason123@gmail.com
        Subject Public Key Info:
            Public Key Algorithm: rsaEncryption
                Public-Key: (1024 bit)
                Modulus:
                    00:e3:e6:ea:7f:f0:f3:93:4b:3c:5b:54:f6:90:5f:
                    53:32:95:d4:93:4d:52:7d:94:35:23:e3:ae:0d:1c:
                    66:a0:b4:81:bd:95:ad:53:6b:88:a8:85:ea:ea:0f:
                    37:a5:14:e0:dc:d3:9d:e4:1f:41:73:77:37:ca:b4:
                    f1:d2:1c:20:f7:50:05:cf:52:bd:60:21:a8:85:80:
                    1c:5e:99:af:41:43:68:03:7c:db:d5:aa:10:33:cb:
                    63:50:5c:e0:bf:1c:68:f4:0b:e2:43:e2:21:90:e4:
                    d2:72:a9:59:69:ed:85:2f:70:0f:2a:e3:00:e2:d7:
                    9b:da:f7:b3:95:4a:97:60:47
                Exponent: 65537 (0x10001)
        X509v3 extensions:
            X509v3 Basic Constraints: 
                CA:FALSE
            Netscape Comment: 
                OpenSSL Generated Certificate
            X509v3 Subject Key Identifier: 
                54:2E:FA:87:2A:13:76:4B:CC:05:A0:F7:42:90:C0:23:84:12:98:E6
            X509v3 Authority Key Identifier: 
                keyid:3B:34:90:8C:14:64:9C:D9:6F:EE:BB:7E:C6:71:57:21:F4:19:53:A1

    Signature Algorithm: sha256WithRSAEncryption
         c3:d0:ae:a0:0d:0a:ba:d6:f3:24:6f:46:74:45:05:55:89:44:
         eb:3d:f2:25:d0:a7:e3:c7:4d:cb:2a:85:d9:b3:00:ff:89:10:
         ff:81:8e:ef:4a:bc:9f:cd:a1:d6:8e:81:46:42:86:75:6c:48:
         d9:50:31:c3:a5:c8:ec:29:90:44:03:b3:5c:a8:dc:bd:fe:34:
         c8:43:b4:c9:6d:5d:bf:72:29:e8:c3:61:89:78:d9:14:3d:89:
         8a:db:0a:f9:4e:bc:b7:00:db:65:18:47:6b:29:25:5e:d8:07:
         ed:fb:34:63:04:ea:c3:61:e6:f6:f1:61:b4:0c:eb:d8:38:68:
         16:24:5b:12:9e:15:75:54:42:77:35:7c:ae:cb:a0:7a:4e:8b:
         ba:29:fa:e9:db:09:a6:7b:81:c8:a2:82:06:86:20:29:e2:3d:
         aa:f3:c6:57:db:4e:fe:b5:f6:44:64:e2:76:63:39:2b:04:75:
         81:98:85:94:e7:2b:d7:a4:15:13:2c:7a:fc:3e:ef:de:71:c1:
         e6:6d:51:97:96:ed:80:6b:4e:9c:cb:47:e8:a5:98:b2:2a:23:
         f9:a2:35:f4:c3:5e:cb:91:f1:9f:c4:39:d4:1b:fb:37:48:7f:
         61:b5:95:80:8b:92:86:45:83:c4:38:50:3b:e7:50:f9:9f:cb:
         a0:cc:3d:36
-----BEGIN CERTIFICATE-----
MIIDljCCAn6gAwIBAgICEAAwDQYJKoZIhvcNAQELBQAwgZ0xCzAJBgNVBAYTAlVT
MRMwEQYDVQQIDApDYWxpZm9ybmlhMQ8wDQYDVQQHDAZQb21vbmExGDAWBgNVBAoM
D0NhbCBQb2x5IFBvbW9uYTETMBEGA1UECwwKQ1MgTWFzdGVyczEOMAwGA1UEAwwF
S2V2aW4xKTAnBgkqhkiG9w0BCQEWGmZvb2x5Y29vbHkyODg2MjJAeWFob28uY29t
MB4XDTIyMTAwMTIyMjkzMVoXDTIzMTAwMTIyMjkzMVowgYQxCzAJBgNVBAYTAlVT
MRMwEQYDVQQIDApDYWxpZm9ybmlhMRgwFgYDVQQKDA9DYWwgUG9seSBQb21vbmEx
EzARBgNVBAsMCkNTIE1hc3RlcnMxDjAMBgNVBAMMBU1hc29uMSEwHwYJKoZIhvcN
AQkBFhJNYXNvbjEyM0BnbWFpbC5jb20wgZ8wDQYJKoZIhvcNAQEBBQADgY0AMIGJ
AoGBAOPm6n/w85NLPFtU9pBfUzKV1JNNUn2UNSPjrg0cZqC0gb2VrVNriKiF6uoP
N6UU4NzTneQfQXN3N8q08dIcIPdQBc9SvWAhqIWAHF6Zr0FDaAN829WqEDPLY1Bc
4L8caPQL4kPiIZDk0nKpWWnthS9wDyrjAOLXm9r3s5VKl2BHAgMBAAGjezB5MAkG
A1UdEwQCMAAwLAYJYIZIAYb4QgENBB8WHU9wZW5TU0wgR2VuZXJhdGVkIENlcnRp
ZmljYXRlMB0GA1UdDgQWBBRULvqHKhN2S8wFoPdCkMAjhBKY5jAfBgNVHSMEGDAW
gBQ7NJCMFGSc2W/uu37GcVch9BlToTANBgkqhkiG9w0BAQsFAAOCAQEAw9CuoA0K
utbzJG9GdEUFVYlE6z3yJdCn48dNyyqF2bMA/4kQ/4GO70q8n82h1o6BRkKGdWxI
2VAxw6XI7CmQRAOzXKjcvf40yEO0yW1dv3Ip6MNhiXjZFD2JitsK+U68twDbZRhH
ayklXtgH7fs0YwTqw2Hm9vFhtAzr2DhoFiRbEp4VdVRCdzV8rsugek6Luin66dsJ
pnuByKKCBoYgKeI9qvPGV9tO/rX2RGTidmM5KwR1gZiFlOcr16QVEyx6/D7v3nHB
5m1Rl5btgGtOnMtH6KWYsioj+aI19MNey5Hxn8Q51Bv7N0h/YbWVgIuShkWDxDhQ
O+dQ+Z/LoMw9Ng==
-----END CERTIFICATE-----
