Certificate:
    Data:
        Version: 3 (0x2)
        Serial Number: 4097 (0x1001)
    Signature Algorithm: sha256WithRSAEncryption
        Issuer: C=US, ST=California, L=Pomona, O=Cal Poly Pomona, OU=CS Masters, CN=Kevin/emailAddress=foolycooly288622@yahoo.com
        Validity
            Not Before: Oct  1 22:35:36 2022 GMT
            Not After : Oct  1 22:35:36 2023 GMT
        Subject: C=US, ST=California, O=Cal Poly Pomona, OU=CS Masters, CN=SEEDPKILab2020.com/emailAddress=SEEDPKILab2020.com@cpp.edu
        Subject Public Key Info:
            Public Key Algorithm: rsaEncryption
                Public-Key: (1024 bit)
                Modulus:
                    00:a8:b7:9b:50:bf:6f:29:a3:0e:8f:48:9b:5e:68:
                    7c:e9:ae:29:b9:51:dc:97:b2:a2:08:7e:16:85:82:
                    a6:e1:b6:b9:7d:46:de:f0:0d:29:42:b8:d3:b4:aa:
                    d6:0e:b9:91:c9:4d:1c:95:be:d3:e4:61:f8:dd:e3:
                    22:fa:05:ec:f1:c4:97:7d:24:df:68:75:84:4d:b1:
                    c8:6e:f3:7a:65:c2:d3:02:18:8e:45:56:9f:c7:11:
                    da:5f:29:30:14:49:94:4f:fb:00:21:17:af:49:99:
                    2d:b8:a8:dd:cf:1e:b1:c6:e6:77:0b:30:c2:3b:77:
                    95:82:99:7f:76:6f:40:d8:31
                Exponent: 65537 (0x10001)
        X509v3 extensions:
            X509v3 Basic Constraints: 
                CA:FALSE
            Netscape Comment: 
                OpenSSL Generated Certificate
            X509v3 Subject Key Identifier: 
                D4:9C:0C:63:73:72:68:37:84:C4:B7:A5:C0:DC:91:03:D7:86:B4:E2
            X509v3 Authority Key Identifier: 
                keyid:3B:34:90:8C:14:64:9C:D9:6F:EE:BB:7E:C6:71:57:21:F4:19:53:A1

    Signature Algorithm: sha256WithRSAEncryption
         36:44:5c:0e:f6:5d:96:f3:02:b0:77:e9:9f:f5:8b:db:d5:20:
         5a:5a:b6:87:0b:cd:1e:e3:79:c1:30:83:53:37:59:66:1d:13:
         db:2f:e8:9a:40:94:d2:d0:ae:99:9c:1d:b7:a7:57:1e:b2:f3:
         7d:62:2e:44:cb:c7:55:94:be:f1:dc:d9:a3:ae:77:8d:b5:65:
         b0:f8:91:2f:12:48:d8:49:7d:4c:77:b7:84:78:0d:19:0d:b7:
         dc:76:0b:72:10:46:f4:d8:a4:97:c4:2c:91:0b:2e:1b:48:26:
         7d:35:1c:46:23:ae:3e:7f:a0:a9:82:e6:17:1e:9a:fd:af:c2:
         58:ab:5a:9b:00:e9:dd:e7:7b:ed:5b:71:b4:ba:9d:9f:da:3f:
         23:a0:c0:c7:ee:c0:78:37:46:26:65:36:9b:65:7a:71:1a:a3:
         cf:15:22:6f:32:16:5d:59:f7:b8:4c:87:4a:fe:12:d0:96:c0:
         9f:ab:2d:45:87:47:ae:cd:14:8b:21:4e:6f:1f:4a:ab:39:e8:
         47:be:e8:e0:72:c9:3d:31:6a:c7:31:28:46:83:d3:f6:b0:b9:
         d1:99:e7:64:2a:d8:64:4d:81:03:34:1b:67:df:60:81:3e:59:
         76:08:66:3a:57:27:06:73:e7:c9:88:ea:ac:c4:6d:78:cd:2c:
         db:d8:96:6e
-----BEGIN CERTIFICATE-----
MIIDqzCCApOgAwIBAgICEAEwDQYJKoZIhvcNAQELBQAwgZ0xCzAJBgNVBAYTAlVT
MRMwEQYDVQQIDApDYWxpZm9ybmlhMQ8wDQYDVQQHDAZQb21vbmExGDAWBgNVBAoM
D0NhbCBQb2x5IFBvbW9uYTETMBEGA1UECwwKQ1MgTWFzdGVyczEOMAwGA1UEAwwF
S2V2aW4xKTAnBgkqhkiG9w0BCQEWGmZvb2x5Y29vbHkyODg2MjJAeWFob28uY29t
MB4XDTIyMTAwMTIyMzUzNloXDTIzMTAwMTIyMzUzNlowgZkxCzAJBgNVBAYTAlVT
MRMwEQYDVQQIDApDYWxpZm9ybmlhMRgwFgYDVQQKDA9DYWwgUG9seSBQb21vbmEx
EzARBgNVBAsMCkNTIE1hc3RlcnMxGzAZBgNVBAMMElNFRURQS0lMYWIyMDIwLmNv
bTEpMCcGCSqGSIb3DQEJARYaU0VFRFBLSUxhYjIwMjAuY29tQGNwcC5lZHUwgZ8w
DQYJKoZIhvcNAQEBBQADgY0AMIGJAoGBAKi3m1C/bymjDo9Im15ofOmuKblR3Jey
ogh+FoWCpuG2uX1G3vANKUK407Sq1g65kclNHJW+0+Rh+N3jIvoF7PHEl30k32h1
hE2xyG7zemXC0wIYjkVWn8cR2l8pMBRJlE/7ACEXr0mZLbio3c8escbmdwswwjt3
lYKZf3ZvQNgxAgMBAAGjezB5MAkGA1UdEwQCMAAwLAYJYIZIAYb4QgENBB8WHU9w
ZW5TU0wgR2VuZXJhdGVkIENlcnRpZmljYXRlMB0GA1UdDgQWBBTUnAxjc3JoN4TE
t6XA3JED14a04jAfBgNVHSMEGDAWgBQ7NJCMFGSc2W/uu37GcVch9BlToTANBgkq
hkiG9w0BAQsFAAOCAQEANkRcDvZdlvMCsHfpn/WL29UgWlq2hwvNHuN5wTCDUzdZ
Zh0T2y/omkCU0tCumZwdt6dXHrLzfWIuRMvHVZS+8dzZo653jbVlsPiRLxJI2El9
THe3hHgNGQ233HYLchBG9Nikl8QskQsuG0gmfTUcRiOuPn+gqYLmFx6a/a/CWKta
mwDp3ed77VtxtLqdn9o/I6DAx+7AeDdGJmU2m2V6cRqjzxUibzIWXVn3uEyHSv4S
0JbAn6stRYdHrs0UiyFObx9KqznoR77o4HLJPTFqxzEoRoPT9rC50ZnnZCrYZE2B
AzQbZ99ggT5ZdghmOlcnBnPnyYjqrMRteM0s29iWbg==
-----END CERTIFICATE-----
