Certificate:
    Data:
        Version: 3 (0x2)
        Serial Number: 4099 (0x1003)
    Signature Algorithm: sha256WithRSAEncryption
        Issuer: C=US, ST=California, L=Pomona, O=www.SEEDPKILab2020.com, OU=www.SEEDPKILab2020.com, CN=www.SEEDPKILab2020.com/emailAddress=www.SEEDPKILab2020.com@aol.com
        Validity
            Not Before: Oct  2 01:00:12 2022 GMT
            Not After : Oct  2 01:00:12 2023 GMT
        Subject: C=US, ST=California, O=www.SEEDPKILab2020.com, OU=www.google.com, CN=www.google.com/emailAddress=www.google.com@aol.com
        Subject Public Key Info:
            Public Key Algorithm: rsaEncryption
                Public-Key: (1024 bit)
                Modulus:
                    00:d9:6b:33:76:66:9e:5f:cc:65:09:62:66:f5:3f:
                    7b:9f:1a:84:b7:ad:ae:fc:d0:96:1c:fd:6b:ff:1c:
                    cb:6b:ba:f0:37:db:93:22:0d:8f:b8:f9:f0:25:74:
                    0c:84:f6:96:32:52:dc:99:6c:51:da:f1:cb:77:e4:
                    3f:54:39:9d:8b:cd:65:b1:aa:ad:01:58:b1:b8:0f:
                    a1:9a:64:b9:f0:a7:17:b4:67:d0:c7:33:84:f3:eb:
                    78:08:1e:39:c3:a9:9d:54:3b:01:f6:71:f1:2e:04:
                    d6:d0:6b:fc:c8:11:d7:be:10:02:05:f3:dd:19:a1:
                    91:ed:f2:c5:6f:dc:6d:0d:87
                Exponent: 65537 (0x10001)
        X509v3 extensions:
            X509v3 Basic Constraints: 
                CA:FALSE
            Netscape Comment: 
                OpenSSL Generated Certificate
            X509v3 Subject Key Identifier: 
                86:32:A7:0F:D8:89:B6:5F:C1:A4:07:4A:B2:CE:41:84:F0:F0:3D:AA
            X509v3 Authority Key Identifier: 
                keyid:24:50:E0:E5:0C:5C:CB:5A:DD:77:4C:C3:CF:6E:D1:6C:91:5F:27:A4

    Signature Algorithm: sha256WithRSAEncryption
         c9:7e:40:27:2b:6b:08:83:01:61:46:10:c7:06:d1:9f:50:0a:
         ba:ca:40:cd:5e:16:89:52:3a:ea:82:bc:90:1a:4e:75:9b:b6:
         d4:b4:c7:69:57:3a:1b:3d:9a:a3:4e:ba:47:81:01:a4:65:2d:
         7a:94:12:9d:24:3f:4b:9a:78:29:7c:b8:79:45:cf:8b:17:92:
         de:ba:28:c2:c1:38:45:be:ad:79:d2:9d:ff:ab:24:97:de:1b:
         e4:7a:9d:23:df:0d:f3:4d:20:76:1b:dc:33:68:af:3e:70:a4:
         a1:a2:7e:a9:84:36:3f:a4:72:c7:18:b2:23:d5:b7:09:1d:cf:
         22:c5:77:ad:70:4a:2f:77:56:b8:53:84:db:5a:6b:1b:7e:dc:
         d0:b7:64:4b:3e:7c:5e:40:cc:46:25:7a:ec:73:99:ac:4f:32:
         bb:19:86:db:9b:d7:ef:a2:02:69:16:c3:94:ec:d6:2d:ac:95:
         63:6e:cd:c3:d0:80:db:8d:01:7b:7b:f5:54:21:86:28:89:6e:
         5a:93:9b:9e:dd:05:8b:50:50:9f:44:23:6a:e8:7b:30:2e:7e:
         46:02:6e:7c:c3:b5:f8:47:ae:93:f6:93:92:a4:1b:0c:ff:21:
         87:0a:69:08:25:05:f7:16:af:e3:f1:df:b3:b5:3a:8f:e8:2e:
         91:fe:f7:3b
-----BEGIN CERTIFICATE-----
MIID1jCCAr6gAwIBAgICEAMwDQYJKoZIhvcNAQELBQAwgcUxCzAJBgNVBAYTAlVT
MRMwEQYDVQQIDApDYWxpZm9ybmlhMQ8wDQYDVQQHDAZQb21vbmExHzAdBgNVBAoM
Fnd3dy5TRUVEUEtJTGFiMjAyMC5jb20xHzAdBgNVBAsMFnd3dy5TRUVEUEtJTGFi
MjAyMC5jb20xHzAdBgNVBAMMFnd3dy5TRUVEUEtJTGFiMjAyMC5jb20xLTArBgkq
hkiG9w0BCQEWHnd3dy5TRUVEUEtJTGFiMjAyMC5jb21AYW9sLmNvbTAeFw0yMjEw
MDIwMTAwMTJaFw0yMzEwMDIwMTAwMTJaMIGcMQswCQYDVQQGEwJVUzETMBEGA1UE
CAwKQ2FsaWZvcm5pYTEfMB0GA1UECgwWd3d3LlNFRURQS0lMYWIyMDIwLmNvbTEX
MBUGA1UECwwOd3d3Lmdvb2dsZS5jb20xFzAVBgNVBAMMDnd3dy5nb29nbGUuY29t
MSUwIwYJKoZIhvcNAQkBFhZ3d3cuZ29vZ2xlLmNvbUBhb2wuY29tMIGfMA0GCSqG
SIb3DQEBAQUAA4GNADCBiQKBgQDZazN2Zp5fzGUJYmb1P3ufGoS3ra780JYc/Wv/
HMtruvA325MiDY+4+fAldAyE9pYyUtyZbFHa8ct35D9UOZ2LzWWxqq0BWLG4D6Ga
ZLnwpxe0Z9DHM4Tz63gIHjnDqZ1UOwH2cfEuBNbQa/zIEde+EAIF890ZoZHt8sVv
3G0NhwIDAQABo3sweTAJBgNVHRMEAjAAMCwGCWCGSAGG+EIBDQQfFh1PcGVuU1NM
IEdlbmVyYXRlZCBDZXJ0aWZpY2F0ZTAdBgNVHQ4EFgQUhjKnD9iJtl/BpAdKss5B
hPDwPaowHwYDVR0jBBgwFoAUJFDg5Qxcy1rdd0zDz27RbJFfJ6QwDQYJKoZIhvcN
AQELBQADggEBAMl+QCcrawiDAWFGEMcG0Z9QCrrKQM1eFolSOuqCvJAaTnWbttS0
x2lXOhs9mqNOukeBAaRlLXqUEp0kP0uaeCl8uHlFz4sXkt66KMLBOEW+rXnSnf+r
JJfeG+R6nSPfDfNNIHYb3DNorz5wpKGifqmENj+kcscYsiPVtwkdzyLFd61wSi93
VrhThNtaaxt+3NC3ZEs+fF5AzEYleuxzmaxPMrsZhtub1++iAmkWw5Ts1i2slWNu
zcPQgNuNAXt79VQhhiiJblqTm57dBYtQUJ9EI2roezAufkYCbnzDtfhHrpP2k5Kk
Gwz/IYcKaQglBfcWr+Px37O1Oo/oLpH+9zs=
-----END CERTIFICATE-----
