Certificate:
    Data:
        Version: 3 (0x2)
        Serial Number: 4098 (0x1002)
    Signature Algorithm: sha256WithRSAEncryption
        Issuer: C=US, ST=California, L=Pomona, O=www.SEEDPKILab2020.com, OU=www.SEEDPKILab2020.com, CN=www.SEEDPKILab2020.com/emailAddress=www.SEEDPKILab2020.com@aol.com
        Validity
            Not Before: Oct  1 23:30:09 2022 GMT
            Not After : Oct  1 23:30:09 2023 GMT
        Subject: C=US, ST=California, O=www.SEEDPKILab2020.com, OU=www.SEEDPKILab2020.com, CN=www.SEEDPKILab2020.com/emailAddress=www.SEEDPKILab2020.com
        Subject Public Key Info:
            Public Key Algorithm: rsaEncryption
                Public-Key: (1024 bit)
                Modulus:
                    00:f3:71:36:ca:3f:cc:bf:48:27:d3:87:9d:ed:5b:
                    4a:c9:1e:42:51:a2:75:00:bb:3d:6a:62:0c:a1:68:
                    f1:91:75:78:45:ac:a3:47:3d:99:25:14:0a:81:f6:
                    79:4b:1d:83:13:83:fd:10:19:33:2c:2a:fb:ff:5f:
                    98:3e:81:af:8b:75:2b:c6:3f:b7:a5:fd:98:c8:41:
                    b4:05:bf:ce:b3:26:27:02:7f:f6:7b:7b:a9:9c:5f:
                    61:d9:25:e7:70:4d:7d:56:ea:56:0e:85:6b:36:ca:
                    6a:94:33:65:02:ba:62:95:f6:25:b4:df:62:02:e7:
                    4e:3e:2f:ac:82:85:de:1a:25
                Exponent: 65537 (0x10001)
        X509v3 extensions:
            X509v3 Basic Constraints: 
                CA:FALSE
            Netscape Comment: 
                OpenSSL Generated Certificate
            X509v3 Subject Key Identifier: 
                16:72:9B:45:B6:F9:B6:FD:61:03:A4:AD:6F:B1:92:C5:15:13:50:B6
            X509v3 Authority Key Identifier: 
                keyid:24:50:E0:E5:0C:5C:CB:5A:DD:77:4C:C3:CF:6E:D1:6C:91:5F:27:A4

    Signature Algorithm: sha256WithRSAEncryption
         c7:c0:34:35:54:31:0b:1c:b2:7b:34:12:a4:d1:7c:9d:09:1f:
         ae:d1:b4:9d:12:51:93:68:0c:69:3d:01:12:05:1b:cf:6d:68:
         40:a0:2b:c9:f0:f3:33:97:c4:b9:c6:97:5b:1d:81:1f:2a:a6:
         e9:1c:a4:92:51:12:da:ed:53:f1:c8:20:98:ec:98:cd:25:ac:
         92:c2:df:03:5c:8d:0a:9e:39:9b:53:03:8c:6b:6d:05:c3:b5:
         86:34:d3:6f:c3:dd:5e:92:bf:59:28:08:e4:92:16:5c:21:9d:
         55:a1:c3:90:af:20:dc:fd:2a:92:8b:83:27:bb:29:f5:1b:d0:
         e4:68:db:bf:fb:dd:6c:2e:ad:ee:aa:73:56:15:68:d4:1a:78:
         e7:dc:cf:33:5b:db:97:b2:95:0e:68:12:77:98:14:3c:64:44:
         f3:18:ba:cd:55:2c:e2:cc:de:a5:cf:32:a6:32:81:b7:1f:83:
         6b:61:94:f2:f5:62:79:fb:87:89:b3:89:12:92:18:87:e5:b6:
         e9:97:f9:75:a2:db:5a:d4:1c:b5:c7:50:68:85:2e:e7:5c:e9:
         d6:fd:de:cd:61:cb:81:f6:92:03:46:6d:df:25:24:7b:12:c9:
         39:ea:ea:98:bd:65:e9:67:f1:60:ee:7b:86:a1:ae:da:f0:8e:
         b1:f9:f6:b9
-----BEGIN CERTIFICATE-----
MIID5jCCAs6gAwIBAgICEAIwDQYJKoZIhvcNAQELBQAwgcUxCzAJBgNVBAYTAlVT
MRMwEQYDVQQIDApDYWxpZm9ybmlhMQ8wDQYDVQQHDAZQb21vbmExHzAdBgNVBAoM
Fnd3dy5TRUVEUEtJTGFiMjAyMC5jb20xHzAdBgNVBAsMFnd3dy5TRUVEUEtJTGFi
MjAyMC5jb20xHzAdBgNVBAMMFnd3dy5TRUVEUEtJTGFiMjAyMC5jb20xLTArBgkq
hkiG9w0BCQEWHnd3dy5TRUVEUEtJTGFiMjAyMC5jb21AYW9sLmNvbTAeFw0yMjEw
MDEyMzMwMDlaFw0yMzEwMDEyMzMwMDlaMIGsMQswCQYDVQQGEwJVUzETMBEGA1UE
CAwKQ2FsaWZvcm5pYTEfMB0GA1UECgwWd3d3LlNFRURQS0lMYWIyMDIwLmNvbTEf
MB0GA1UECwwWd3d3LlNFRURQS0lMYWIyMDIwLmNvbTEfMB0GA1UEAwwWd3d3LlNF
RURQS0lMYWIyMDIwLmNvbTElMCMGCSqGSIb3DQEJARYWd3d3LlNFRURQS0lMYWIy
MDIwLmNvbTCBnzANBgkqhkiG9w0BAQEFAAOBjQAwgYkCgYEA83E2yj/Mv0gn04ed
7VtKyR5CUaJ1ALs9amIMoWjxkXV4RayjRz2ZJRQKgfZ5Sx2DE4P9EBkzLCr7/1+Y
PoGvi3Urxj+3pf2YyEG0Bb/OsyYnAn/2e3upnF9h2SXncE19VupWDoVrNspqlDNl
ArpilfYltN9iAudOPi+sgoXeGiUCAwEAAaN7MHkwCQYDVR0TBAIwADAsBglghkgB
hvhCAQ0EHxYdT3BlblNTTCBHZW5lcmF0ZWQgQ2VydGlmaWNhdGUwHQYDVR0OBBYE
FBZym0W2+bb9YQOkrW+xksUVE1C2MB8GA1UdIwQYMBaAFCRQ4OUMXMta3XdMw89u
0WyRXyekMA0GCSqGSIb3DQEBCwUAA4IBAQDHwDQ1VDELHLJ7NBKk0XydCR+u0bSd
ElGTaAxpPQESBRvPbWhAoCvJ8PMzl8S5xpdbHYEfKqbpHKSSURLa7VPxyCCY7JjN
JaySwt8DXI0KnjmbUwOMa20Fw7WGNNNvw91ekr9ZKAjkkhZcIZ1VocOQryDc/SqS
i4Mnuyn1G9DkaNu/+91sLq3uqnNWFWjUGnjn3M8zW9uXspUOaBJ3mBQ8ZETzGLrN
VSzizN6lzzKmMoG3H4NrYZTy9WJ5+4eJs4kSkhiH5bbpl/l1otta1By1x1BohS7n
XOnW/d7NYcuB9pIDRm3fJSR7Esk56uqYvWXpZ/Fg7nuGoa7a8I6x+fa5
-----END CERTIFICATE-----
